; Function Attrs: uwtable
define noundef i32 @_ZNK7rocksdb8MemTable13KeyComparatorclEPKcS3_(ptr noundef nonnull readonly align 8 captures(none) dereferenceable(24) %0, ptr noundef %1, ptr noundef %2) unnamed_addr #17 align 2 {
  %4 = alloca %"class.rocksdb::Slice", align 8
  %5 = alloca %"class.rocksdb::Slice", align 8
  %6 = alloca i32, align 4
  %7 = alloca i32, align 4
  call void @llvm.lifetime.start.p0(i64 4, ptr nonnull %7) #35
  store i32 0, ptr %7, align 4, !tbaa !372
  %8 = load i8, ptr %1, align 1, !tbaa !30
  %9 = icmp sgt i8 %8, -1
  br i1 %9, label %10, label %.thread.i.i

10:                                               ; preds = %3
  %11 = zext nneg i8 %8 to i32
  %12 = getelementptr inbounds nuw i8, ptr %1, i64 1
  br label %_ZN7rocksdb22GetLengthPrefixedSliceEPKc.exit

.thread.i.i:                                      ; preds = %3
  %13 = getelementptr inbounds nuw i8, ptr %1, i64 5
  %14 = call noundef ptr @_ZN7rocksdb22GetVarint32PtrFallbackEPKcS1_Pj(ptr noundef nonnull %1, ptr noundef nonnull %13, ptr noundef nonnull %7)
  %.pre.i = load i32, ptr %7, align 4, !tbaa !372
  br label %_ZN7rocksdb22GetLengthPrefixedSliceEPKc.exit

_ZN7rocksdb22GetLengthPrefixedSliceEPKc.exit:     ; preds = %10, %.thread.i.i
  %15 = phi i32 [ %11, %10 ], [ %.pre.i, %.thread.i.i ]
  %.1.i.i = phi ptr [ %12, %10 ], [ %14, %.thread.i.i ]
  %16 = zext i32 %15 to i64
  call void @llvm.lifetime.end.p0(i64 4, ptr nonnull %7) #35
  call void @llvm.lifetime.start.p0(i64 4, ptr nonnull %6) #35
  store i32 0, ptr %6, align 4, !tbaa !372
  %17 = load i8, ptr %2, align 1, !tbaa !30
  %18 = icmp sgt i8 %17, -1
  br i1 %18, label %19, label %.thread.i.i3

19:                                               ; preds = %_ZN7rocksdb22GetLengthPrefixedSliceEPKc.exit
  %20 = zext nneg i8 %17 to i32
  %21 = getelementptr inbounds nuw i8, ptr %2, i64 1
  br label %_ZN7rocksdb22GetLengthPrefixedSliceEPKc.exit8

.thread.i.i3:                                     ; preds = %_ZN7rocksdb22GetLengthPrefixedSliceEPKc.exit
  %22 = getelementptr inbounds nuw i8, ptr %2, i64 5
  %23 = call noundef ptr @_ZN7rocksdb22GetVarint32PtrFallbackEPKcS1_Pj(ptr noundef nonnull %2, ptr noundef nonnull %22, ptr noundef nonnull %6)
  %.pre.i4 = load i32, ptr %6, align 4, !tbaa !372
  br label %_ZN7rocksdb22GetLengthPrefixedSliceEPKc.exit8

_ZN7rocksdb22GetLengthPrefixedSliceEPKc.exit8:    ; preds = %19, %.thread.i.i3
  %24 = phi i32 [ %20, %19 ], [ %.pre.i4, %.thread.i.i3 ]
  %.1.i.i5 = phi ptr [ %21, %19 ], [ %23, %.thread.i.i3 ]
  %25 = zext i32 %24 to i64
  call void @llvm.lifetime.end.p0(i64 4, ptr nonnull %6) #35
  %26 = getelementptr inbounds nuw i8, ptr %0, i64 16
  call void @llvm.lifetime.start.p0(i64 16, ptr nonnull %4) #35
  %27 = add nsw i64 %16, -8
  store ptr %.1.i.i, ptr %4, align 8
  %28 = getelementptr inbounds nuw i8, ptr %4, i64 8
  store i64 %27, ptr %28, align 8
  call void @llvm.lifetime.start.p0(i64 16, ptr nonnull %5) #35
  %29 = add nsw i64 %25, -8
  store ptr %.1.i.i5, ptr %5, align 8
  %30 = getelementptr inbounds nuw i8, ptr %5, i64 8
  store i64 %29, ptr %30, align 8
  %.not.i.i.i = icmp eq ptr @_ZTHN7rocksdb10perf_levelE, null
  br i1 %.not.i.i.i, label %_ZTWN7rocksdb10perf_levelE.exit.i.i, label %31

31:                                               ; preds = %_ZN7rocksdb22GetLengthPrefixedSliceEPKc.exit8
  call void @_ZTHN7rocksdb10perf_levelE()
  br label %_ZTWN7rocksdb10perf_levelE.exit.i.i

_ZTWN7rocksdb10perf_levelE.exit.i.i:              ; preds = %31, %_ZN7rocksdb22GetLengthPrefixedSliceEPKc.exit8
  %32 = call noundef align 1 ptr @llvm.threadlocal.address.p0(ptr align 1 @_ZN7rocksdb10perf_levelE)
  %33 = load i8, ptr %32, align 1, !tbaa !12
  %34 = icmp ugt i8 %33, 1
  br i1 %34, label %35, label %_ZNK7rocksdb21UserComparatorWrapper7CompareERKNS_5SliceES3_.exit.i

35:                                               ; preds = %_ZTWN7rocksdb10perf_levelE.exit.i.i
  %.not.i3.i.i = icmp eq ptr @_ZTHN7rocksdb12perf_contextE, null
  br i1 %.not.i3.i.i, label %_ZTWN7rocksdb12perf_contextE.exit.i.i, label %36

36:                                               ; preds = %35
  call void @_ZTHN7rocksdb12perf_contextE()
  br label %_ZTWN7rocksdb12perf_contextE.exit.i.i

_ZTWN7rocksdb12perf_contextE.exit.i.i:            ; preds = %36, %35
  %37 = call noundef align 8 ptr @llvm.threadlocal.address.p0(ptr align 8 @_ZN7rocksdb12perf_contextE)
  %38 = load i64, ptr %37, align 8, !tbaa !14
  %39 = add i64 %38, 1
  store i64 %39, ptr %37, align 8, !tbaa !14
  br label %_ZNK7rocksdb21UserComparatorWrapper7CompareERKNS_5SliceES3_.exit.i

_ZNK7rocksdb21UserComparatorWrapper7CompareERKNS_5SliceES3_.exit.i: ; preds = %_ZTWN7rocksdb12perf_contextE.exit.i.i, %_ZTWN7rocksdb10perf_levelE.exit.i.i
  %40 = load ptr, ptr %26, align 8, !tbaa !16
  %41 = getelementptr inbounds nuw i8, ptr %40, i64 32
  %42 = load ptr, ptr %41, align 8, !tbaa !19
  %43 = getelementptr inbounds nuw i8, ptr %42, i64 16
  %44 = load ptr, ptr %43, align 8
  %45 = call noundef i32 %44(ptr noundef nonnull align 8 dereferenceable(8) %41, ptr noundef nonnull align 8 dereferenceable(16) %4, ptr noundef nonnull align 8 dereferenceable(16) %5)
  call void @llvm.lifetime.end.p0(i64 16, ptr nonnull %5) #35
  call void @llvm.lifetime.end.p0(i64 16, ptr nonnull %4) #35
  %46 = icmp eq i32 %45, 0
  br i1 %46, label %47, label %_ZNK7rocksdb21InternalKeyComparator13CompareKeySeqERKNS_5SliceES3_.exit

47:                                               ; preds = %_ZNK7rocksdb21UserComparatorWrapper7CompareERKNS_5SliceES3_.exit.i
  %48 = getelementptr inbounds nuw i8, ptr %.1.i.i, i64 %16
  %49 = getelementptr inbounds i8, ptr %48, i64 -8
  %.0.copyload.i.i = load i64, ptr %49, align 1
  %50 = lshr i64 %.0.copyload.i.i, 8
  %51 = getelementptr inbounds nuw i8, ptr %.1.i.i5, i64 %25
  %52 = getelementptr inbounds i8, ptr %51, i64 -8
  %.0.copyload.i18.i = load i64, ptr %52, align 1
  %53 = lshr i64 %.0.copyload.i18.i, 8
  %54 = icmp samesign ugt i64 %50, %53
  br i1 %54, label %_ZNK7rocksdb21InternalKeyComparator13CompareKeySeqERKNS_5SliceES3_.exit, label %55

55:                                               ; preds = %47
  %56 = icmp samesign ult i64 %50, %53
  %spec.select.i = zext i1 %56 to i32
  br label %_ZNK7rocksdb21InternalKeyComparator13CompareKeySeqERKNS_5SliceES3_.exit

_ZNK7rocksdb21InternalKeyComparator13CompareKeySeqERKNS_5SliceES3_.exit: ; preds = %_ZNK7rocksdb21UserComparatorWrapper7CompareERKNS_5SliceES3_.exit.i, %47, %55
  %.0.i = phi i32 [ %45, %_ZNK7rocksdb21UserComparatorWrapper7CompareERKNS_5SliceES3_.exit.i ], [ -1, %47 ], [ %spec.select.i, %55 ]
  ret i32 %.0.i
}